; Function Attrs: nounwind uwtable
define noundef ptr @l_Lean_IR_FnBody_replaceVar___lambda__1___boxed(ptr noundef %0, ptr noundef %1, ptr noundef %2) #0 {
  %4 = ptrtoint ptr %0 to i64
  %5 = ptrtoint ptr %2 to i64
  %6 = and i64 %4, 1
  %7 = and i64 %6, %5
  %or.cond.not.i = icmp eq i64 %7, 0
  br i1 %or.cond.not.i, label %lean_nat_eq.exit.i, label %8, !prof !19

8:                                                ; preds = %3
  %9 = icmp eq ptr %0, %2
  br i1 %9, label %19, label %11

lean_nat_eq.exit.i:                               ; preds = %3
  %10 = tail call zeroext i1 @lean_nat_big_eq(ptr noundef %0, ptr noundef %2) #4
  br i1 %10, label %19, label %11

11:                                               ; preds = %lean_nat_eq.exit.i, %8
  %12 = and i64 %5, 1
  %.not13.i = icmp eq i64 %12, 0
  br i1 %.not13.i, label %13, label %l_Lean_IR_FnBody_replaceVar___lambda__1.exit

13:                                               ; preds = %11
  %.val.i.i = load i32, ptr %2, align 4, !tbaa !9
  %14 = icmp sgt i32 %.val.i.i, 0
  br i1 %14, label %15, label %17, !prof !12

15:                                               ; preds = %13
  %16 = add nuw i32 %.val.i.i, 1
  store i32 %16, ptr %2, align 4, !tbaa !9
  br label %l_Lean_IR_FnBody_replaceVar___lambda__1.exit

17:                                               ; preds = %13
  %.not.i.i = icmp eq i32 %.val.i.i, 0
  br i1 %.not.i.i, label %l_Lean_IR_FnBody_replaceVar___lambda__1.exit, label %18

18:                                               ; preds = %17
  tail call void @lean_inc_ref_cold(ptr noundef nonnull %2) #4
  br label %l_Lean_IR_FnBody_replaceVar___lambda__1.exit

19:                                               ; preds = %lean_nat_eq.exit.i, %8
  %20 = ptrtoint ptr %1 to i64
  %21 = and i64 %20, 1
  %.not.i13 = icmp eq i64 %21, 0
  br i1 %.not.i13, label %22, label %l_Lean_IR_FnBody_replaceVar___lambda__1.exit

22:                                               ; preds = %19
  %.val.i8.i = load i32, ptr %1, align 4, !tbaa !9
  %23 = icmp sgt i32 %.val.i8.i, 0
  br i1 %23, label %24, label %26, !prof !12

24:                                               ; preds = %22
  %25 = add nuw i32 %.val.i8.i, 1
  store i32 %25, ptr %1, align 4, !tbaa !9
  br label %l_Lean_IR_FnBody_replaceVar___lambda__1.exit

26:                                               ; preds = %22
  %.not.i9.i = icmp eq i32 %.val.i8.i, 0
  br i1 %.not.i9.i, label %l_Lean_IR_FnBody_replaceVar___lambda__1.exit, label %27

27:                                               ; preds = %26
  tail call void @lean_inc_ref_cold(ptr noundef nonnull %1) #4
  br label %l_Lean_IR_FnBody_replaceVar___lambda__1.exit

l_Lean_IR_FnBody_replaceVar___lambda__1.exit:     ; preds = %11, %15, %17, %18, %19, %24, %26, %27
  %.0.i = phi ptr [ %2, %18 ], [ %2, %17 ], [ %2, %15 ], [ %2, %11 ], [ %1, %27 ], [ %1, %26 ], [ %1, %24 ], [ %1, %19 ]
  %28 = and i64 %5, 1
  %.not = icmp eq i64 %28, 0
  br i1 %.not, label %29, label %lean_dec.exit8

29:                                               ; preds = %l_Lean_IR_FnBody_replaceVar___lambda__1.exit
  %30 = load i32, ptr %2, align 4, !tbaa !9
  %31 = icmp sgt i32 %30, 1
  br i1 %31, label %32, label %34, !prof !12

32:                                               ; preds = %29
  %33 = add nsw i32 %30, -1
  store i32 %33, ptr %2, align 4, !tbaa !9
  br label %lean_dec.exit8

34:                                               ; preds = %29
  %.not.i = icmp eq i32 %30, 0
  br i1 %.not.i, label %lean_dec.exit8, label %35

35:                                               ; preds = %34
  tail call void @lean_dec_ref_cold(ptr noundef nonnull %2) #4
  br label %lean_dec.exit8

lean_dec.exit8:                                   ; preds = %35, %34, %32, %l_Lean_IR_FnBody_replaceVar___lambda__1.exit
  %36 = ptrtoint ptr %1 to i64
  %37 = and i64 %36, 1
  %.not14 = icmp eq i64 %37, 0
  br i1 %.not14, label %38, label %lean_dec.exit7

38:                                               ; preds = %lean_dec.exit8
  %39 = load i32, ptr %1, align 4, !tbaa !9
  %40 = icmp sgt i32 %39, 1
  br i1 %40, label %41, label %43, !prof !12

41:                                               ; preds = %38
  %42 = add nsw i32 %39, -1
  store i32 %42, ptr %1, align 4, !tbaa !9
  br label %lean_dec.exit7

43:                                               ; preds = %38
  %.not.i9 = icmp eq i32 %39, 0
  br i1 %.not.i9, label %lean_dec.exit7, label %44

44:                                               ; preds = %43
  tail call void @lean_dec_ref_cold(ptr noundef nonnull %1) #4
  br label %lean_dec.exit7

lean_dec.exit7:                                   ; preds = %44, %43, %41, %lean_dec.exit8
  %.not15 = icmp eq i64 %6, 0
  br i1 %.not15, label %45, label %lean_dec.exit

45:                                               ; preds = %lean_dec.exit7
  %46 = load i32, ptr %0, align 4, !tbaa !9
  %47 = icmp sgt i32 %46, 1
  br i1 %47, label %48, label %50, !prof !12

48:                                               ; preds = %45
  %49 = add nsw i32 %46, -1
  store i32 %49, ptr %0, align 4, !tbaa !9
  br label %lean_dec.exit

50:                                               ; preds = %45
  %.not.i11 = icmp eq i32 %46, 0
  br i1 %.not.i11, label %lean_dec.exit, label %51

51:                                               ; preds = %50
  tail call void @lean_dec_ref_cold(ptr noundef nonnull %0) #4
  br label %lean_dec.exit

lean_dec.exit:                                    ; preds = %51, %50, %48, %lean_dec.exit7
  ret ptr %.0.i
}